Certificate:
    Data:
        Version: 3 (0x2)
        Serial Number: 2 (0x2)
    Signature Algorithm: md5WithRSAEncryption
        Issuer: C=VE, ST=Distrito Capital, L=Caracas, O=Jaig, OU=Programacion, CN=Jaime Irazabal/emailAddress=jaimeirazabal1@gmail.com
        Validity
            Not Before: Dec 11 17:42:47 2015 GMT
            Not After : Dec  8 17:42:47 2025 GMT
        Subject: C=VE, ST=Distrito Capital, O=Jaig, OU=Programador, CN=Jaime Irazabal/emailAddress=jaimeirazabal1@gmail.com
        Subject Public Key Info:
            Public Key Algorithm: rsaEncryption
                Public-Key: (1024 bit)
                Modulus:
                    00:dd:2a:fe:ed:98:07:e9:76:8c:a4:2c:ec:e3:c4:
                    31:49:c9:43:9c:46:48:73:49:ec:59:93:91:77:21:
                    51:9c:0d:68:de:88:ce:f5:03:b3:37:fb:3e:5f:7a:
                    a2:53:0a:f4:d0:5b:65:23:af:ba:04:b6:24:3c:32:
                    04:64:3c:a9:c4:40:8d:73:6f:0f:72:82:ac:87:3c:
                    65:d6:39:a0:db:92:b7:70:2a:41:e7:3e:0c:c8:83:
                    1e:19:10:7f:f5:df:e3:dd:0a:9d:13:dc:c4:e0:f7:
                    4e:32:b9:ed:5a:b0:86:3c:4c:01:b5:cb:f5:d9:0c:
                    99:19:05:78:e3:e5:db:48:cd
                Exponent: 65537 (0x10001)
        X509v3 extensions:
            X509v3 Basic Constraints: 
                CA:FALSE
            Netscape Comment: 
                OpenSSL Generated Certificate
            X509v3 Subject Key Identifier: 
                D6:2E:C6:70:4D:97:3A:F9:AB:01:0A:6F:CD:7B:E2:E4:77:A2:64:BB
            X509v3 Authority Key Identifier: 
                keyid:8C:76:A8:D6:BF:AB:84:83:32:6E:8C:4D:3F:06:9C:D4:8A:61:CB:3A
                DirName:/C=VE/ST=Distrito Capital/L=Caracas/O=Jaig/OU=Programacion/CN=Jaime Irazabal/emailAddress=jaimeirazabal1@gmail.com
                serial:B2:21:75:99:EE:4B:5C:69

    Signature Algorithm: md5WithRSAEncryption
         5d:9b:45:77:3a:23:52:f6:3a:cd:21:54:b1:ef:0f:75:10:79:
         7e:dc:9a:96:19:89:60:51:fb:82:4d:01:cb:61:29:65:19:c7:
         aa:8a:da:51:bc:94:49:c1:2b:da:ff:5b:b0:e6:aa:0e:66:f3:
         25:aa:f8:e1:81:0d:b0:8e:03:b8:66:67:15:32:8d:23:f3:da:
         fb:66:e2:b9:34:22:df:85:0a:b2:88:f9:c0:67:1a:b0:d0:65:
         db:1c:af:09:03:f2:17:ae:22:c7:59:ca:c2:4e:0e:94:e9:68:
         2a:7e:72:37:a3:d4:3f:ef:c3:14:6d:42:54:e2:f4:85:b0:6c:
         79:05
-----BEGIN CERTIFICATE-----
MIID4TCCA0qgAwIBAgIBAjANBgkqhkiG9w0BAQQFADCBojELMAkGA1UEBhMCVkUx
GTAXBgNVBAgTEERpc3RyaXRvIENhcGl0YWwxEDAOBgNVBAcTB0NhcmFjYXMxDTAL
BgNVBAoTBEphaWcxFTATBgNVBAsTDFByb2dyYW1hY2lvbjEXMBUGA1UEAxMOSmFp
bWUgSXJhemFiYWwxJzAlBgkqhkiG9w0BCQEWGGphaW1laXJhemFiYWwxQGdtYWls
LmNvbTAeFw0xNTEyMTExNzQyNDdaFw0yNTEyMDgxNzQyNDdaMIGPMQswCQYDVQQG
EwJWRTEZMBcGA1UECBMQRGlzdHJpdG8gQ2FwaXRhbDENMAsGA1UEChMESmFpZzEU
MBIGA1UECxMLUHJvZ3JhbWFkb3IxFzAVBgNVBAMTDkphaW1lIElyYXphYmFsMScw
JQYJKoZIhvcNAQkBFhhqYWltZWlyYXphYmFsMUBnbWFpbC5jb20wgZ8wDQYJKoZI
hvcNAQEBBQADgY0AMIGJAoGBAN0q/u2YB+l2jKQs7OPEMUnJQ5xGSHNJ7FmTkXch
UZwNaN6IzvUDszf7Pl96olMK9NBbZSOvugS2JDwyBGQ8qcRAjXNvD3KCrIc8ZdY5
oNuSt3AqQec+DMiDHhkQf/Xf490KnRPcxOD3TjK57VqwhjxMAbXL9dkMmRkFeOPl
20jNAgMBAAGjggE2MIIBMjAJBgNVHRMEAjAAMCwGCWCGSAGG+EIBDQQfFh1PcGVu
U1NMIEdlbmVyYXRlZCBDZXJ0aWZpY2F0ZTAdBgNVHQ4EFgQU1i7GcE2XOvmrAQpv
zXvi5HeiZLswgdcGA1UdIwSBzzCBzIAUjHao1r+rhIMyboxNPwac1Iphyzqhgaik
gaUwgaIxCzAJBgNVBAYTAlZFMRkwFwYDVQQIExBEaXN0cml0byBDYXBpdGFsMRAw
DgYDVQQHEwdDYXJhY2FzMQ0wCwYDVQQKEwRKYWlnMRUwEwYDVQQLEwxQcm9ncmFt
YWNpb24xFzAVBgNVBAMTDkphaW1lIElyYXphYmFsMScwJQYJKoZIhvcNAQkBFhhq
YWltZWlyYXphYmFsMUBnbWFpbC5jb22CCQCyIXWZ7ktcaTANBgkqhkiG9w0BAQQF
AAOBgQBdm0V3OiNS9jrNIVSx7w91EHl+3JqWGYlgUfuCTQHLYSllGceqitpRvJRJ
wSva/1uw5qoOZvMlqvjhgQ2wjgO4ZmcVMo0j89r7ZuK5NCLfhQqyiPnAZxqw0GXb
HK8JA/IXriLHWcrCTg6U6WgqfnI3o9Q/78MUbUJU4vSFsGx5BQ==
-----END CERTIFICATE-----
