Certificate:
    Data:
        Version: 3 (0x2)
        Serial Number: 1 (0x1)
    Signature Algorithm: md5WithRSAEncryption
        Issuer: C=VE, ST=Distrito Capital, L=Caracas, O=Jaig, OU=Programacion, CN=Jaime Irazabal/emailAddress=jaimeirazabal1@gmail.com
        Validity
            Not Before: Dec 11 15:03:27 2015 GMT
            Not After : Dec  8 15:03:27 2025 GMT
        Subject: C=VE, ST=Distrito Capital, O=Jaig, OU=Programacion, CN=Jaime Irazabal/emailAddress=jaimeirazabal1@gmail.com
        Subject Public Key Info:
            Public Key Algorithm: rsaEncryption
                Public-Key: (1024 bit)
                Modulus:
                    00:cd:c4:7c:66:ac:06:79:ed:26:57:aa:42:40:6a:
                    b7:05:da:d1:61:45:ad:30:df:ad:4f:8d:b9:90:b5:
                    14:2c:43:df:ad:df:30:c6:09:4e:f1:b8:68:10:50:
                    f4:fa:c0:81:ab:3f:96:19:c4:1f:95:1f:ad:b0:16:
                    8d:b3:6b:3b:19:52:1b:08:ac:3d:22:7e:c2:0e:17:
                    d2:51:77:a8:0f:77:52:b7:3c:5c:42:1d:74:a2:35:
                    87:50:d7:72:80:b5:32:17:52:76:66:fc:9b:20:fc:
                    7d:f4:a3:a9:6e:f8:ab:0c:22:b2:f6:9c:84:2a:43:
                    97:94:c4:bb:39:82:98:a6:a7
                Exponent: 65537 (0x10001)
        X509v3 extensions:
            X509v3 Basic Constraints: 
                CA:FALSE
            Netscape Comment: 
                OpenSSL Generated Certificate
            X509v3 Subject Key Identifier: 
                5F:20:73:7D:A2:18:9F:2E:26:D8:DC:6C:2F:74:2E:5C:D1:B5:7B:14
            X509v3 Authority Key Identifier: 
                keyid:8C:76:A8:D6:BF:AB:84:83:32:6E:8C:4D:3F:06:9C:D4:8A:61:CB:3A
                DirName:/C=VE/ST=Distrito Capital/L=Caracas/O=Jaig/OU=Programacion/CN=Jaime Irazabal/emailAddress=jaimeirazabal1@gmail.com
                serial:B2:21:75:99:EE:4B:5C:69

    Signature Algorithm: md5WithRSAEncryption
         1a:4b:69:c5:86:8d:ee:e2:0b:a6:82:c5:10:c4:c3:f2:b9:4c:
         64:fd:d1:e1:d3:05:b2:83:2d:a5:c7:e2:ae:a5:bf:c9:39:3f:
         58:17:a3:3d:63:10:66:47:64:67:cf:39:3b:a6:3f:6e:37:40:
         73:a7:76:b5:a8:9f:03:ea:eb:82:23:de:ae:11:eb:8b:f4:cf:
         bd:9e:07:70:05:ba:5a:f6:e3:ab:f8:ea:b1:9d:4a:d0:78:99:
         b9:77:89:5f:98:b8:6a:55:69:e2:0a:b3:a5:3c:4a:5c:77:3c:
         ec:37:e7:d9:43:00:85:42:5c:07:e1:3b:9a:93:5c:61:16:4c:
         a9:47
-----BEGIN CERTIFICATE-----
MIID4jCCA0ugAwIBAgIBATANBgkqhkiG9w0BAQQFADCBojELMAkGA1UEBhMCVkUx
GTAXBgNVBAgTEERpc3RyaXRvIENhcGl0YWwxEDAOBgNVBAcTB0NhcmFjYXMxDTAL
BgNVBAoTBEphaWcxFTATBgNVBAsTDFByb2dyYW1hY2lvbjEXMBUGA1UEAxMOSmFp
bWUgSXJhemFiYWwxJzAlBgkqhkiG9w0BCQEWGGphaW1laXJhemFiYWwxQGdtYWls
LmNvbTAeFw0xNTEyMTExNTAzMjdaFw0yNTEyMDgxNTAzMjdaMIGQMQswCQYDVQQG
EwJWRTEZMBcGA1UECBMQRGlzdHJpdG8gQ2FwaXRhbDENMAsGA1UEChMESmFpZzEV
MBMGA1UECxMMUHJvZ3JhbWFjaW9uMRcwFQYDVQQDEw5KYWltZSBJcmF6YWJhbDEn
MCUGCSqGSIb3DQEJARYYamFpbWVpcmF6YWJhbDFAZ21haWwuY29tMIGfMA0GCSqG
SIb3DQEBAQUAA4GNADCBiQKBgQDNxHxmrAZ57SZXqkJAarcF2tFhRa0w361PjbmQ
tRQsQ9+t3zDGCU7xuGgQUPT6wIGrP5YZxB+VH62wFo2zazsZUhsIrD0ifsIOF9JR
d6gPd1K3PFxCHXSiNYdQ13KAtTIXUnZm/Jsg/H30o6lu+KsMIrL2nIQqQ5eUxLs5
gpimpwIDAQABo4IBNjCCATIwCQYDVR0TBAIwADAsBglghkgBhvhCAQ0EHxYdT3Bl
blNTTCBHZW5lcmF0ZWQgQ2VydGlmaWNhdGUwHQYDVR0OBBYEFF8gc32iGJ8uJtjc
bC90LlzRtXsUMIHXBgNVHSMEgc8wgcyAFIx2qNa/q4SDMm6MTT8GnNSKYcs6oYGo
pIGlMIGiMQswCQYDVQQGEwJWRTEZMBcGA1UECBMQRGlzdHJpdG8gQ2FwaXRhbDEQ
MA4GA1UEBxMHQ2FyYWNhczENMAsGA1UEChMESmFpZzEVMBMGA1UECxMMUHJvZ3Jh
bWFjaW9uMRcwFQYDVQQDEw5KYWltZSBJcmF6YWJhbDEnMCUGCSqGSIb3DQEJARYY
amFpbWVpcmF6YWJhbDFAZ21haWwuY29tggkAsiF1me5LXGkwDQYJKoZIhvcNAQEE
BQADgYEAGktpxYaN7uILpoLFEMTD8rlMZP3R4dMFsoMtpcfirqW/yTk/WBejPWMQ
ZkdkZ885O6Y/bjdAc6d2taifA+rrgiPerhHri/TPvZ4HcAW6Wvbjq/jqsZ1K0HiZ
uXeJX5i4alVp4gqzpTxKXHc87Dfn2UMAhUJcB+E7mpNcYRZMqUc=
-----END CERTIFICATE-----
